; Function Attrs: nounwind uwtable
define ptr @l_Std_DHashMap_Internal_AssocList_get_x3f___at_Lean_Server_dedupReferences___spec__7(ptr noundef readonly captures(none) %0, ptr noundef %1) local_unnamed_addr #0 {
  %3 = getelementptr inbounds nuw i8, ptr %0, i64 8
  %4 = getelementptr inbounds nuw i8, ptr %0, i64 16
  br label %5

5:                                                ; preds = %.backedge, %2
  %.030 = phi ptr [ %1, %2 ], [ %21, %.backedge ]
  %6 = ptrtoint ptr %.030 to i64
  %7 = and i64 %6, 1
  %.not.i = icmp eq i64 %7, 0
  br i1 %.not.i, label %11, label %8

8:                                                ; preds = %5
  %9 = lshr i64 %6, 1
  %10 = trunc i64 %9 to i32
  br label %lean_obj_tag.exit

11:                                               ; preds = %5
  %12 = getelementptr i8, ptr %.030, i64 4
  %.val.i = load i32, ptr %12, align 4
  %13 = lshr i32 %.val.i, 24
  br label %lean_obj_tag.exit

lean_obj_tag.exit:                                ; preds = %8, %11
  %.0.i = phi i32 [ %10, %8 ], [ %13, %11 ]
  %14 = icmp eq i32 %.0.i, 0
  br i1 %14, label %.loopexit, label %15

15:                                               ; preds = %lean_obj_tag.exit
  %16 = getelementptr inbounds nuw i8, ptr %.030, i64 8
  %17 = load ptr, ptr %16, align 8, !tbaa !4
  %18 = getelementptr inbounds nuw i8, ptr %.030, i64 16
  %19 = load ptr, ptr %18, align 8, !tbaa !4
  %20 = getelementptr inbounds nuw i8, ptr %.030, i64 24
  %21 = load ptr, ptr %20, align 8, !tbaa !4
  %22 = getelementptr inbounds nuw i8, ptr %17, i64 8
  %23 = load ptr, ptr %22, align 8, !tbaa !4
  %24 = getelementptr inbounds nuw i8, ptr %17, i64 16
  %25 = load ptr, ptr %24, align 8, !tbaa !4
  %26 = load ptr, ptr %3, align 8, !tbaa !4
  %27 = load ptr, ptr %4, align 8, !tbaa !4
  %28 = tail call zeroext i8 @l_Lean_Lsp_beqRefIdent____x40_Lean_Data_Lsp_Internal___hyg_45_(ptr noundef %23, ptr noundef %26) #8
  %29 = icmp eq i8 %28, 0
  br i1 %29, label %.backedge, label %30

30:                                               ; preds = %15
  %31 = getelementptr inbounds nuw i8, ptr %25, i64 8
  %32 = load ptr, ptr %31, align 8, !tbaa !4
  %33 = getelementptr inbounds nuw i8, ptr %25, i64 16
  %34 = load ptr, ptr %33, align 8, !tbaa !4
  %35 = getelementptr inbounds nuw i8, ptr %27, i64 8
  %36 = load ptr, ptr %35, align 8, !tbaa !4
  %37 = getelementptr inbounds nuw i8, ptr %27, i64 16
  %38 = load ptr, ptr %37, align 8, !tbaa !4
  %39 = tail call zeroext i8 @l_Option_beqOption____x40_Init_Data_Option_Basic___hyg_160____at_Lean_PrettyPrinter_delabCore___spec__3(ptr noundef %32, ptr noundef %36) #8
  %40 = icmp eq i8 %39, 0
  br i1 %40, label %.backedge, label %41

.backedge:                                        ; preds = %30, %41, %15
  br label %5

41:                                               ; preds = %30
  %42 = tail call zeroext i8 @l_Lean_Lsp_beqRange____x40_Lean_Data_Lsp_Basic___hyg_500_(ptr noundef %34, ptr noundef %38) #8
  %43 = icmp eq i8 %42, 0
  br i1 %43, label %.backedge, label %44

44:                                               ; preds = %41
  %45 = ptrtoint ptr %19 to i64
  %46 = and i64 %45, 1
  %.not = icmp eq i64 %46, 0
  br i1 %.not, label %47, label %lean_inc.exit

47:                                               ; preds = %44
  %.val.i37 = load i32, ptr %19, align 4, !tbaa !8
  %48 = icmp sgt i32 %.val.i37, 0
  br i1 %48, label %49, label %51, !prof !11

49:                                               ; preds = %47
  %50 = add nuw i32 %.val.i37, 1
  store i32 %50, ptr %19, align 4, !tbaa !8
  br label %lean_inc.exit

51:                                               ; preds = %47
  %.not.i38 = icmp eq i32 %.val.i37, 0
  br i1 %.not.i38, label %lean_inc.exit, label %52

52:                                               ; preds = %51
  tail call void @lean_inc_ref_cold(ptr noundef nonnull %19) #8
  br label %lean_inc.exit

lean_inc.exit:                                    ; preds = %52, %51, %49, %44
  tail call void @lean_inc_heartbeat() #8
  %53 = tail call noalias ptr @mi_malloc_small(i64 noundef 16) #8
  %54 = icmp eq ptr %53, null
  br i1 %54, label %55, label %.thread

55:                                               ; preds = %lean_inc.exit
  tail call void @lean_internal_panic_out_of_memory() #9
  unreachable

.thread:                                          ; preds = %lean_inc.exit
  %56 = getelementptr inbounds nuw i8, ptr %53, i64 4
  store i32 1, ptr %53, align 4, !tbaa !8
  store i32 16842768, ptr %56, align 4
  %57 = getelementptr inbounds nuw i8, ptr %53, i64 8
  store ptr %19, ptr %57, align 8, !tbaa !4
  br label %.loopexit

.loopexit:                                        ; preds = %lean_obj_tag.exit, %.thread
  %.1 = phi ptr [ %53, %.thread ], [ inttoptr (i64 1 to ptr), %lean_obj_tag.exit ]
  ret ptr %.1
}